; Function Attrs: mustprogress nounwind willreturn uwtable
define hidden range(i32 -32512, 1) i32 @mbedtls_ssl_set_client_transport_id(ptr noundef captures(none) %0, ptr noundef readonly captures(none) %1, i64 noundef %2) local_unnamed_addr #0 {
  %4 = load ptr, ptr %0, align 8, !tbaa !3
  %5 = getelementptr inbounds nuw i8, ptr %4, i64 8
  %6 = load i8, ptr %5, align 8, !tbaa !16
  %.not = icmp eq i8 %6, 1
  br i1 %.not, label %7, label %14

7:                                                ; preds = %3
  %8 = getelementptr inbounds nuw i8, ptr %0, i64 448
  %9 = load ptr, ptr %8, align 8, !tbaa !28
  tail call void @free(ptr noundef %9) #12
  %10 = tail call noalias ptr @calloc(i64 noundef 1, i64 noundef %2) #13
  store ptr %10, ptr %8, align 8, !tbaa !28
  %11 = icmp eq ptr %10, null
  br i1 %11, label %14, label %12

12:                                               ; preds = %7
  tail call void @llvm.memcpy.p0.p0.i64(ptr nonnull align 1 %10, ptr align 1 %1, i64 %2, i1 false)
  %13 = getelementptr inbounds nuw i8, ptr %0, i64 456
  store i64 %2, ptr %13, align 8, !tbaa !29
  br label %14

14:                                               ; preds = %7, %3, %12
  %.0 = phi i32 [ 0, %12 ], [ -28928, %3 ], [ -32512, %7 ]
  ret i32 %.0
}